; Function Attrs: nounwind uwtable
define internal void @dataDeviceHandleSelection(ptr readnone captures(none) %0, ptr readnone captures(none) %1, ptr noundef %2) #0 {
  %4 = load ptr, ptr getelementptr inbounds nuw (i8, ptr @_glfw, i64 134048), align 8, !tbaa !187
  %.not = icmp eq ptr %4, null
  br i1 %.not, label %10, label %5

5:                                                ; preds = %3
  %6 = load ptr, ptr getelementptr inbounds nuw (i8, ptr @_glfw, i64 137528), align 8, !tbaa !136
  %7 = load ptr, ptr getelementptr inbounds nuw (i8, ptr @_glfw, i64 137520), align 8, !tbaa !93
  %8 = tail call i32 %7(ptr noundef nonnull %4) #20
  %9 = tail call ptr (ptr, i32, ptr, i32, i32, ...) %6(ptr noundef nonnull %4, i32 noundef 2, ptr noundef null, i32 noundef %8, i32 noundef 1) #20
  store ptr null, ptr getelementptr inbounds nuw (i8, ptr @_glfw, i64 134048), align 8, !tbaa !187
  br label %10

10:                                               ; preds = %5, %3
  %11 = load i32, ptr getelementptr inbounds nuw (i8, ptr @_glfw, i64 134040), align 8, !tbaa !174
  %.not12 = icmp eq i32 %11, 0
  br i1 %.not12, label %.loopexit, label %.lr.ph

.lr.ph:                                           ; preds = %10
  %12 = load ptr, ptr getelementptr inbounds nuw (i8, ptr @_glfw, i64 134032), align 8, !tbaa !173
  %wide.trip.count = zext i32 %11 to i64
  br label %14

13:                                               ; preds = %14
  %indvars.iv.next = add nuw nsw i64 %indvars.iv, 1
  %exitcond.not = icmp eq i64 %indvars.iv.next, %wide.trip.count
  br i1 %exitcond.not, label %.loopexit, label %14

14:                                               ; preds = %.lr.ph, %13
  %indvars.iv = phi i64 [ 0, %.lr.ph ], [ %indvars.iv.next, %13 ]
  %15 = getelementptr inbounds nuw %struct._GLFWofferWayland, ptr %12, i64 %indvars.iv
  %16 = load ptr, ptr %15, align 8, !tbaa !178
  %17 = icmp eq ptr %16, %2
  br i1 %17, label %18, label %13

18:                                               ; preds = %14
  %19 = getelementptr inbounds nuw i8, ptr %15, i64 8
  %20 = load i32, ptr %19, align 8, !tbaa !188
  %.not9 = icmp eq i32 %20, 0
  br i1 %.not9, label %22, label %21

21:                                               ; preds = %18
  store ptr %2, ptr getelementptr inbounds nuw (i8, ptr @_glfw, i64 134048), align 8, !tbaa !187
  br label %27

22:                                               ; preds = %18
  %23 = load ptr, ptr getelementptr inbounds nuw (i8, ptr @_glfw, i64 137528), align 8, !tbaa !136
  %24 = load ptr, ptr getelementptr inbounds nuw (i8, ptr @_glfw, i64 137520), align 8, !tbaa !93
  %25 = tail call i32 %24(ptr noundef %2) #20
  %26 = tail call ptr (ptr, i32, ptr, i32, i32, ...) %23(ptr noundef %2, i32 noundef 2, ptr noundef null, i32 noundef %25, i32 noundef 1) #20
  %.pre = load ptr, ptr getelementptr inbounds nuw (i8, ptr @_glfw, i64 134032), align 8, !tbaa !173
  %.pre17 = load i32, ptr getelementptr inbounds nuw (i8, ptr @_glfw, i64 134040), align 8, !tbaa !174
  br label %27

27:                                               ; preds = %22, %21
  %28 = phi i32 [ %.pre17, %22 ], [ %11, %21 ]
  %29 = phi ptr [ %.pre, %22 ], [ %12, %21 ]
  %30 = getelementptr inbounds nuw %struct._GLFWofferWayland, ptr %29, i64 %indvars.iv
  %31 = add i32 %28, -1
  %32 = zext i32 %31 to i64
  %33 = getelementptr inbounds nuw %struct._GLFWofferWayland, ptr %29, i64 %32
  tail call void @llvm.memcpy.p0.p0.i64(ptr noundef nonnull align 8 dereferenceable(16) %30, ptr noundef nonnull align 8 dereferenceable(16) %33, i64 16, i1 false), !tbaa.struct !185
  %34 = load i32, ptr getelementptr inbounds nuw (i8, ptr @_glfw, i64 134040), align 8, !tbaa !174
  %35 = add i32 %34, -1
  store i32 %35, ptr getelementptr inbounds nuw (i8, ptr @_glfw, i64 134040), align 8, !tbaa !174
  br label %.loopexit

.loopexit:                                        ; preds = %13, %10, %27
  ret void
}